target datalayout = "e-m:e-p270:32:32-p271:32:32-p272:64:64-i64:64-i128:128-f80:128-n8:16:32:64-S128"
target triple = "x86_64-unknown-linux-gnu"

%struct.ecc_set_type = type { i32, i32, ptr, ptr, ptr, ptr, ptr, ptr, ptr, ptr, i32, i32, i32 }
%struct.ecc_curve_spec = type { ptr, ptr, ptr, ptr, ptr, ptr, ptr, i32, i32, i8 }

; Function Attrs: nounwind uwtable
define internal i32 @wc_ecc_curve_cache_load_item(ptr noundef %curve, ptr noundef %src, ptr noundef %dst, i8 noundef zeroext %mask) #0 {
entry:
  %retval = alloca i32, align 4
  %curve.addr = alloca ptr, align 8
  %src.addr = alloca ptr, align 8
  %dst.addr = alloca ptr, align 8
  %mask.addr = alloca i8, align 1
  %err = alloca i32, align 4
  store ptr %curve, ptr %curve.addr, align 8
  store ptr %src, ptr %src.addr, align 8
  store ptr %dst, ptr %dst.addr, align 8
  store i8 %mask, ptr %mask.addr, align 1
  %0 = load ptr, ptr %curve.addr, align 8
  %spec_use = getelementptr inbounds %struct.ecc_curve_spec, ptr %0, i32 0, i32 8
  %1 = load i32, ptr %spec_use, align 4
  %2 = load ptr, ptr %curve.addr, align 8
  %spec_count = getelementptr inbounds %struct.ecc_curve_spec, ptr %2, i32 0, i32 7
  %3 = load i32, ptr %spec_count, align 8
  %cmp = icmp uge i32 %1, %3
  br i1 %cmp, label %if.then, label %if.end

if.then:                                          ; preds = %entry
  br label %do.body

do.body:                                          ; preds = %if.then
  br label %do.end

do.end:                                           ; preds = %do.body
  store i32 -170, ptr %retval, align 4
  br label %return

if.end:                                           ; preds = %entry
  %4 = load ptr, ptr %curve.addr, align 8
  %spec_ints = getelementptr inbounds %struct.ecc_curve_spec, ptr %4, i32 0, i32 6
  %5 = load ptr, ptr %spec_ints, align 8
  %6 = load ptr, ptr %curve.addr, align 8
  %spec_use1 = getelementptr inbounds %struct.ecc_curve_spec, ptr %6, i32 0, i32 8
  %7 = load i32, ptr %spec_use1, align 4
  %inc = add i32 %7, 1
  store i32 %inc, ptr %spec_use1, align 4
  %conv = zext i32 %7 to i64
  %mul = mul i64 160, %conv
  %add.ptr = getelementptr inbounds i8, ptr %5, i64 %mul
  %8 = load ptr, ptr %dst.addr, align 8
  store ptr %add.ptr, ptr %8, align 8
  %9 = load ptr, ptr %dst.addr, align 8
  %10 = load ptr, ptr %9, align 8
  %call = call i32 @sp_init_size(ptr noundef %10, i32 noundef 19)
  store i32 %call, ptr %err, align 4
  %11 = load i32, ptr %err, align 4
  %cmp2 = icmp eq i32 %11, 0
  br i1 %cmp2, label %if.then4, label %if.end9

if.then4:                                         ; preds = %if.end
  %12 = load i8, ptr %mask.addr, align 1
  %conv5 = zext i8 %12 to i32
  %13 = load ptr, ptr %curve.addr, align 8
  %load_mask = getelementptr inbounds %struct.ecc_curve_spec, ptr %13, i32 0, i32 9
  %14 = load i8, ptr %load_mask, align 8
  %conv6 = zext i8 %14 to i32
  %or = or i32 %conv6, %conv5
  %conv7 = trunc i32 %or to i8
  store i8 %conv7, ptr %load_mask, align 8
  %15 = load ptr, ptr %dst.addr, align 8
  %16 = load ptr, ptr %15, align 8
  %17 = load ptr, ptr %src.addr, align 8
  %call8 = call i32 @sp_read_radix(ptr noundef %16, ptr noundef %17, i32 noundef 16)
  store i32 %call8, ptr %err, align 4
  br label %if.end9

if.end9:                                          ; preds = %if.then4, %if.end
  %18 = load i32, ptr %err, align 4
  store i32 %18, ptr %retval, align 4
  br label %return

return:                                           ; preds = %if.end9, %do.end
  %19 = load i32, ptr %retval, align 4
  ret i32 %19
}

; Function Attrs: nounwind uwtable
define internal i32 @wc_ecc_curve_load(ptr noundef %dp, ptr noundef %pCurve, i8 noundef zeroext %load_mask) #0 {
entry:
  %retval = alloca i32, align 4
  %dp.addr = alloca ptr, align 8
  %pCurve.addr = alloca ptr, align 8
  %load_mask.addr = alloca i8, align 1
  %ret = alloca i32, align 4
  %curve = alloca ptr, align 8
  %load_items = alloca i8, align 1
  store ptr %dp, ptr %dp.addr, align 8
  store ptr %pCurve, ptr %pCurve.addr, align 8
  store i8 %load_mask, ptr %load_mask.addr, align 1
  store i32 0, ptr %ret, align 4
  store i8 0, ptr %load_items, align 1
  %0 = load ptr, ptr %dp.addr, align 8
  %cmp = icmp eq ptr %0, null
  br i1 %cmp, label %if.then, label %lor.lhs.false

lor.lhs.false:                                    ; preds = %entry
  %1 = load ptr, ptr %pCurve.addr, align 8
  %cmp1 = icmp eq ptr %1, null
  br i1 %cmp1, label %if.then, label %if.end

if.then:                                          ; preds = %lor.lhs.false, %entry
  store i32 -173, ptr %retval, align 4
  br label %return

if.end:                                           ; preds = %lor.lhs.false
  %2 = load ptr, ptr %pCurve.addr, align 8
  %3 = load ptr, ptr %2, align 8
  store ptr %3, ptr %curve, align 8
  %4 = load ptr, ptr %curve, align 8
  %dp2 = getelementptr inbounds %struct.ecc_curve_spec, ptr %4, i32 0, i32 0
  %5 = load ptr, ptr %dp2, align 8
  %6 = load ptr, ptr %dp.addr, align 8
  %cmp3 = icmp ne ptr %5, %6
  br i1 %cmp3, label %if.then4, label %if.end6

if.then4:                                         ; preds = %if.end
  %7 = load ptr, ptr %curve, align 8
  %load_mask5 = getelementptr inbounds %struct.ecc_curve_spec, ptr %7, i32 0, i32 9
  store i8 0, ptr %load_mask5, align 8
  br label %if.end6

if.end6:                                          ; preds = %if.then4, %if.end
  %8 = load ptr, ptr %dp.addr, align 8
  %9 = load ptr, ptr %curve, align 8
  %dp7 = getelementptr inbounds %struct.ecc_curve_spec, ptr %9, i32 0, i32 0
  store ptr %8, ptr %dp7, align 8
  %10 = load ptr, ptr %curve, align 8
  %load_mask8 = getelementptr inbounds %struct.ecc_curve_spec, ptr %10, i32 0, i32 9
  %11 = load i8, ptr %load_mask8, align 8
  %conv = zext i8 %11 to i32
  %not = xor i32 %conv, -1
  %conv9 = trunc i32 %not to i8
  %conv10 = zext i8 %conv9 to i32
  %12 = load i8, ptr %load_mask.addr, align 1
  %conv11 = zext i8 %12 to i32
  %and = and i32 %conv10, %conv11
  %conv12 = trunc i32 %and to i8
  store i8 %conv12, ptr %load_items, align 1
  %13 = load i8, ptr %load_items, align 1
  %conv13 = zext i8 %13 to i32
  %14 = load ptr, ptr %curve, align 8
  %load_mask14 = getelementptr inbounds %struct.ecc_curve_spec, ptr %14, i32 0, i32 9
  %15 = load i8, ptr %load_mask14, align 8
  %conv15 = zext i8 %15 to i32
  %or = or i32 %conv15, %conv13
  %conv16 = trunc i32 %or to i8
  store i8 %conv16, ptr %load_mask14, align 8
  %16 = load i8, ptr %load_items, align 1
  %conv17 = zext i8 %16 to i32
  %and18 = and i32 %conv17, 1
  %tobool = icmp ne i32 %and18, 0
  br i1 %tobool, label %if.then19, label %if.end21

if.then19:                                        ; preds = %if.end6
  %17 = load ptr, ptr %curve, align 8
  %18 = load ptr, ptr %dp.addr, align 8
  %prime = getelementptr inbounds %struct.ecc_set_type, ptr %18, i32 0, i32 3
  %19 = load ptr, ptr %prime, align 8
  %20 = load ptr, ptr %curve, align 8
  %prime20 = getelementptr inbounds %struct.ecc_curve_spec, ptr %20, i32 0, i32 1
  %call = call i32 @wc_ecc_curve_cache_load_item(ptr noundef %17, ptr noundef %19, ptr noundef %prime20, i8 noundef zeroext 1)
  %21 = load i32, ptr %ret, align 4
  %add = add nsw i32 %21, %call
  store i32 %add, ptr %ret, align 4
  br label %if.end21

if.end21:                                         ; preds = %if.then19, %if.end6
  %22 = load i8, ptr %load_items, align 1
  %conv22 = zext i8 %22 to i32
  %and23 = and i32 %conv22, 2
  %tobool24 = icmp ne i32 %and23, 0
  br i1 %tobool24, label %if.then25, label %if.end29

if.then25:                                        ; preds = %if.end21
  %23 = load ptr, ptr %curve, align 8
  %24 = load ptr, ptr %dp.addr, align 8
  %Af = getelementptr inbounds %struct.ecc_set_type, ptr %24, i32 0, i32 4
  %25 = load ptr, ptr %Af, align 8
  %26 = load ptr, ptr %curve, align 8
  %Af26 = getelementptr inbounds %struct.ecc_curve_spec, ptr %26, i32 0, i32 2
  %call27 = call i32 @wc_ecc_curve_cache_load_item(ptr noundef %23, ptr noundef %25, ptr noundef %Af26, i8 noundef zeroext 2)
  %27 = load i32, ptr %ret, align 4
  %add28 = add nsw i32 %27, %call27
  store i32 %add28, ptr %ret, align 4
  br label %if.end29

if.end29:                                         ; preds = %if.then25, %if.end21
  %28 = load i8, ptr %load_items, align 1
  %conv30 = zext i8 %28 to i32
  %and31 = and i32 %conv30, 8
  %tobool32 = icmp ne i32 %and31, 0
  br i1 %tobool32, label %if.then33, label %if.end37

if.then33:                                        ; preds = %if.end29
  %29 = load ptr, ptr %curve, align 8
  %30 = load ptr, ptr %dp.addr, align 8
  %order = getelementptr inbounds %struct.ecc_set_type, ptr %30, i32 0, i32 6
  %31 = load ptr, ptr %order, align 8
  %32 = load ptr, ptr %curve, align 8
  %order34 = getelementptr inbounds %struct.ecc_curve_spec, ptr %32, i32 0, i32 3
  %call35 = call i32 @wc_ecc_curve_cache_load_item(ptr noundef %29, ptr noundef %31, ptr noundef %order34, i8 noundef zeroext 8)
  %33 = load i32, ptr %ret, align 4
  %add36 = add nsw i32 %33, %call35
  store i32 %add36, ptr %ret, align 4
  br label %if.end37

if.end37:                                         ; preds = %if.then33, %if.end29
  %34 = load i8, ptr %load_items, align 1
  %conv38 = zext i8 %34 to i32
  %and39 = and i32 %conv38, 16
  %tobool40 = icmp ne i32 %and39, 0
  br i1 %tobool40, label %if.then41, label %if.end45

if.then41:                                        ; preds = %if.end37
  %35 = load ptr, ptr %curve, align 8
  %36 = load ptr, ptr %dp.addr, align 8
  %Gx = getelementptr inbounds %struct.ecc_set_type, ptr %36, i32 0, i32 7
  %37 = load ptr, ptr %Gx, align 8
  %38 = load ptr, ptr %curve, align 8
  %Gx42 = getelementptr inbounds %struct.ecc_curve_spec, ptr %38, i32 0, i32 4
  %call43 = call i32 @wc_ecc_curve_cache_load_item(ptr noundef %35, ptr noundef %37, ptr noundef %Gx42, i8 noundef zeroext 16)
  %39 = load i32, ptr %ret, align 4
  %add44 = add nsw i32 %39, %call43
  store i32 %add44, ptr %ret, align 4
  br label %if.end45

if.end45:                                         ; preds = %if.then41, %if.end37
  %40 = load i8, ptr %load_items, align 1
  %conv46 = zext i8 %40 to i32
  %and47 = and i32 %conv46, 32
  %tobool48 = icmp ne i32 %and47, 0
  br i1 %tobool48, label %if.then49, label %if.end53

if.then49:                                        ; preds = %if.end45
  %41 = load ptr, ptr %curve, align 8
  %42 = load ptr, ptr %dp.addr, align 8
  %Gy = getelementptr inbounds %struct.ecc_set_type, ptr %42, i32 0, i32 8
  %43 = load ptr, ptr %Gy, align 8
  %44 = load ptr, ptr %curve, align 8
  %Gy50 = getelementptr inbounds %struct.ecc_curve_spec, ptr %44, i32 0, i32 5
  %call51 = call i32 @wc_ecc_curve_cache_load_item(ptr noundef %41, ptr noundef %43, ptr noundef %Gy50, i8 noundef zeroext 32)
  %45 = load i32, ptr %ret, align 4
  %add52 = add nsw i32 %45, %call51
  store i32 %add52, ptr %ret, align 4
  br label %if.end53

if.end53:                                         ; preds = %if.then49, %if.end45
  %46 = load i32, ptr %ret, align 4
  %cmp54 = icmp ne i32 %46, 0
  br i1 %cmp54, label %if.then56, label %if.end57

if.then56:                                        ; preds = %if.end53
  %47 = load ptr, ptr %curve, align 8
  call void @wc_ecc_curve_free(ptr noundef %47)
  store i32 -111, ptr %ret, align 4
  br label %if.end57

if.end57:                                         ; preds = %if.then56, %if.end53
  %48 = load i32, ptr %ret, align 4
  store i32 %48, ptr %retval, align 4
  br label %return

return:                                           ; preds = %if.end57, %if.then
  %49 = load i32, ptr %retval, align 4
  ret i32 %49
}