; Function Attrs: nounwind uwtable
define internal fastcc range(i32 -173, 1) i32 @wc_ecc_curve_load(ptr noundef %dp, ptr %pCurve.0.val, i8 noundef zeroext range(i8 8, 60) %load_mask) unnamed_addr #2 {
entry:
  %cmp = icmp eq ptr %dp, null
  br i1 %cmp, label %return, label %if.end

if.end:                                           ; preds = %entry
  %0 = load ptr, ptr %pCurve.0.val, align 8
  %cmp3.not = icmp eq ptr %0, %dp
  br i1 %cmp3.not, label %if.end.if.end6_crit_edge, label %if.end6

if.end.if.end6_crit_edge:                         ; preds = %if.end
  %load_mask8.phi.trans.insert = getelementptr inbounds nuw i8, ptr %pCurve.0.val, i64 64
  %.pre = load i8, ptr %load_mask8.phi.trans.insert, align 8
  br label %if.end6

if.end6:                                          ; preds = %if.end, %if.end.if.end6_crit_edge
  %1 = phi i8 [ %.pre, %if.end.if.end6_crit_edge ], [ 0, %if.end ]
  store ptr %dp, ptr %pCurve.0.val, align 8
  %load_mask8 = getelementptr inbounds nuw i8, ptr %pCurve.0.val, i64 64
  %not = xor i8 %1, -1
  %and35 = and i8 %load_mask, %not
  %conv13 = zext nneg i8 %and35 to i32
  %or36 = or i8 %1, %load_mask
  store i8 %or36, ptr %load_mask8, align 8
  %and18 = and i32 %conv13, 1
  %tobool.not = icmp eq i32 %and18, 0
  br i1 %tobool.not, label %if.end21, label %if.then19

if.then19:                                        ; preds = %if.end6
  %prime = getelementptr inbounds nuw i8, ptr %dp, i64 16
  %2 = load ptr, ptr %prime, align 8
  %prime20 = getelementptr inbounds nuw i8, ptr %pCurve.0.val, i64 8
  %spec_use.i = getelementptr inbounds nuw i8, ptr %pCurve.0.val, i64 60
  %3 = load i32, ptr %spec_use.i, align 4
  %spec_count.i = getelementptr inbounds nuw i8, ptr %pCurve.0.val, i64 56
  %4 = load i32, ptr %spec_count.i, align 8
  %cmp.not.i = icmp ult i32 %3, %4
  br i1 %cmp.not.i, label %if.end.i, label %if.end21

if.end.i:                                         ; preds = %if.then19
  %spec_ints.i = getelementptr inbounds nuw i8, ptr %pCurve.0.val, i64 48
  %5 = load ptr, ptr %spec_ints.i, align 8
  %inc.i = add nuw i32 %3, 1
  store i32 %inc.i, ptr %spec_use.i, align 4
  %conv.i = zext i32 %3 to i64
  %mul.i = mul nuw nsw i64 %conv.i, 160
  %add.ptr.i = getelementptr inbounds nuw i8, ptr %5, i64 %mul.i
  store ptr %add.ptr.i, ptr %prime20, align 8
  %call.i = tail call i32 @sp_init_size(ptr noundef %add.ptr.i, i32 noundef 19) #19
  %cmp2.i = icmp eq i32 %call.i, 0
  br i1 %cmp2.i, label %if.then4.i, label %if.end21

if.then4.i:                                       ; preds = %if.end.i
  %6 = load i8, ptr %load_mask8, align 8
  %or8.i = or i8 %6, 1
  store i8 %or8.i, ptr %load_mask8, align 8
  %7 = load ptr, ptr %prime20, align 8
  %call8.i = tail call i32 @sp_read_radix(ptr noundef %7, ptr noundef %2, i32 noundef 16) #19
  br label %if.end21

if.end21:                                         ; preds = %if.then4.i, %if.end.i, %if.then19, %if.end6
  %ret.0 = phi i32 [ 0, %if.end6 ], [ -170, %if.then19 ], [ %call8.i, %if.then4.i ], [ %call.i, %if.end.i ]
  %and23 = and i32 %conv13, 2
  %tobool24.not = icmp eq i32 %and23, 0
  br i1 %tobool24.not, label %if.end29, label %if.then25

if.then25:                                        ; preds = %if.end21
  %Af = getelementptr inbounds nuw i8, ptr %dp, i64 24
  %8 = load ptr, ptr %Af, align 8
  %Af26 = getelementptr inbounds nuw i8, ptr %pCurve.0.val, i64 16
  %spec_use.i37 = getelementptr inbounds nuw i8, ptr %pCurve.0.val, i64 60
  %9 = load i32, ptr %spec_use.i37, align 4
  %spec_count.i38 = getelementptr inbounds nuw i8, ptr %pCurve.0.val, i64 56
  %10 = load i32, ptr %spec_count.i38, align 8
  %cmp.not.i39 = icmp ult i32 %9, %10
  br i1 %cmp.not.i39, label %if.end.i41, label %wc_ecc_curve_cache_load_item.exit53

if.end.i41:                                       ; preds = %if.then25
  %spec_ints.i42 = getelementptr inbounds nuw i8, ptr %pCurve.0.val, i64 48
  %11 = load ptr, ptr %spec_ints.i42, align 8
  %inc.i43 = add nuw i32 %9, 1
  store i32 %inc.i43, ptr %spec_use.i37, align 4
  %conv.i44 = zext i32 %9 to i64
  %mul.i45 = mul nuw nsw i64 %conv.i44, 160
  %add.ptr.i46 = getelementptr inbounds nuw i8, ptr %11, i64 %mul.i45
  store ptr %add.ptr.i46, ptr %Af26, align 8
  %call.i47 = tail call i32 @sp_init_size(ptr noundef %add.ptr.i46, i32 noundef 19) #19
  %cmp2.i48 = icmp eq i32 %call.i47, 0
  br i1 %cmp2.i48, label %if.then4.i49, label %wc_ecc_curve_cache_load_item.exit53

if.then4.i49:                                     ; preds = %if.end.i41
  %12 = load i8, ptr %load_mask8, align 8
  %or8.i51 = or i8 %12, 2
  store i8 %or8.i51, ptr %load_mask8, align 8
  %13 = load ptr, ptr %Af26, align 8
  %call8.i52 = tail call i32 @sp_read_radix(ptr noundef %13, ptr noundef %8, i32 noundef 16) #19
  br label %wc_ecc_curve_cache_load_item.exit53

wc_ecc_curve_cache_load_item.exit53:              ; preds = %if.then25, %if.end.i41, %if.then4.i49
  %retval.0.i40 = phi i32 [ -170, %if.then25 ], [ %call8.i52, %if.then4.i49 ], [ %call.i47, %if.end.i41 ]
  %add28 = add nsw i32 %retval.0.i40, %ret.0
  br label %if.end29

if.end29:                                         ; preds = %wc_ecc_curve_cache_load_item.exit53, %if.end21
  %ret.1 = phi i32 [ %add28, %wc_ecc_curve_cache_load_item.exit53 ], [ %ret.0, %if.end21 ]
  %and31 = and i32 %conv13, 8
  %tobool32.not = icmp eq i32 %and31, 0
  br i1 %tobool32.not, label %if.end37, label %if.then33

if.then33:                                        ; preds = %if.end29
  %order = getelementptr inbounds nuw i8, ptr %dp, i64 40
  %14 = load ptr, ptr %order, align 8
  %order34 = getelementptr inbounds nuw i8, ptr %pCurve.0.val, i64 24
  %spec_use.i54 = getelementptr inbounds nuw i8, ptr %pCurve.0.val, i64 60
  %15 = load i32, ptr %spec_use.i54, align 4
  %spec_count.i55 = getelementptr inbounds nuw i8, ptr %pCurve.0.val, i64 56
  %16 = load i32, ptr %spec_count.i55, align 8
  %cmp.not.i56 = icmp ult i32 %15, %16
  br i1 %cmp.not.i56, label %if.end.i58, label %wc_ecc_curve_cache_load_item.exit70

if.end.i58:                                       ; preds = %if.then33
  %spec_ints.i59 = getelementptr inbounds nuw i8, ptr %pCurve.0.val, i64 48
  %17 = load ptr, ptr %spec_ints.i59, align 8
  %inc.i60 = add nuw i32 %15, 1
  store i32 %inc.i60, ptr %spec_use.i54, align 4
  %conv.i61 = zext i32 %15 to i64
  %mul.i62 = mul nuw nsw i64 %conv.i61, 160
  %add.ptr.i63 = getelementptr inbounds nuw i8, ptr %17, i64 %mul.i62
  store ptr %add.ptr.i63, ptr %order34, align 8
  %call.i64 = tail call i32 @sp_init_size(ptr noundef %add.ptr.i63, i32 noundef 19) #19
  %cmp2.i65 = icmp eq i32 %call.i64, 0
  br i1 %cmp2.i65, label %if.then4.i66, label %wc_ecc_curve_cache_load_item.exit70

if.then4.i66:                                     ; preds = %if.end.i58
  %18 = load i8, ptr %load_mask8, align 8
  %or8.i68 = or i8 %18, 8
  store i8 %or8.i68, ptr %load_mask8, align 8
  %19 = load ptr, ptr %order34, align 8
  %call8.i69 = tail call i32 @sp_read_radix(ptr noundef %19, ptr noundef %14, i32 noundef 16) #19
  br label %wc_ecc_curve_cache_load_item.exit70

wc_ecc_curve_cache_load_item.exit70:              ; preds = %if.then33, %if.end.i58, %if.then4.i66
  %retval.0.i57 = phi i32 [ -170, %if.then33 ], [ %call8.i69, %if.then4.i66 ], [ %call.i64, %if.end.i58 ]
  %add36 = add nsw i32 %retval.0.i57, %ret.1
  br label %if.end37

if.end37:                                         ; preds = %wc_ecc_curve_cache_load_item.exit70, %if.end29
  %ret.2 = phi i32 [ %add36, %wc_ecc_curve_cache_load_item.exit70 ], [ %ret.1, %if.end29 ]
  %and39 = and i32 %conv13, 16
  %tobool40.not = icmp eq i32 %and39, 0
  br i1 %tobool40.not, label %if.end45, label %if.then41

if.then41:                                        ; preds = %if.end37
  %Gx = getelementptr inbounds nuw i8, ptr %dp, i64 48
  %20 = load ptr, ptr %Gx, align 8
  %Gx42 = getelementptr inbounds nuw i8, ptr %pCurve.0.val, i64 32
  %spec_use.i71 = getelementptr inbounds nuw i8, ptr %pCurve.0.val, i64 60
  %21 = load i32, ptr %spec_use.i71, align 4
  %spec_count.i72 = getelementptr inbounds nuw i8, ptr %pCurve.0.val, i64 56
  %22 = load i32, ptr %spec_count.i72, align 8
  %cmp.not.i73 = icmp ult i32 %21, %22
  br i1 %cmp.not.i73, label %if.end.i75, label %wc_ecc_curve_cache_load_item.exit87

if.end.i75:                                       ; preds = %if.then41
  %spec_ints.i76 = getelementptr inbounds nuw i8, ptr %pCurve.0.val, i64 48
  %23 = load ptr, ptr %spec_ints.i76, align 8
  %inc.i77 = add nuw i32 %21, 1
  store i32 %inc.i77, ptr %spec_use.i71, align 4
  %conv.i78 = zext i32 %21 to i64
  %mul.i79 = mul nuw nsw i64 %conv.i78, 160
  %add.ptr.i80 = getelementptr inbounds nuw i8, ptr %23, i64 %mul.i79
  store ptr %add.ptr.i80, ptr %Gx42, align 8
  %call.i81 = tail call i32 @sp_init_size(ptr noundef %add.ptr.i80, i32 noundef 19) #19
  %cmp2.i82 = icmp eq i32 %call.i81, 0
  br i1 %cmp2.i82, label %if.then4.i83, label %wc_ecc_curve_cache_load_item.exit87

if.then4.i83:                                     ; preds = %if.end.i75
  %24 = load i8, ptr %load_mask8, align 8
  %or8.i85 = or i8 %24, 16
  store i8 %or8.i85, ptr %load_mask8, align 8
  %25 = load ptr, ptr %Gx42, align 8
  %call8.i86 = tail call i32 @sp_read_radix(ptr noundef %25, ptr noundef %20, i32 noundef 16) #19
  br label %wc_ecc_curve_cache_load_item.exit87

wc_ecc_curve_cache_load_item.exit87:              ; preds = %if.then41, %if.end.i75, %if.then4.i83
  %retval.0.i74 = phi i32 [ -170, %if.then41 ], [ %call8.i86, %if.then4.i83 ], [ %call.i81, %if.end.i75 ]
  %add44 = add nsw i32 %retval.0.i74, %ret.2
  br label %if.end45

if.end45:                                         ; preds = %wc_ecc_curve_cache_load_item.exit87, %if.end37
  %ret.3 = phi i32 [ %add44, %wc_ecc_curve_cache_load_item.exit87 ], [ %ret.2, %if.end37 ]
  %tobool48.not = icmp samesign ult i8 %and35, 32
  br i1 %tobool48.not, label %if.end53, label %if.then49

if.then49:                                        ; preds = %if.end45
  %Gy = getelementptr inbounds nuw i8, ptr %dp, i64 56
  %26 = load ptr, ptr %Gy, align 8
  %Gy50 = getelementptr inbounds nuw i8, ptr %pCurve.0.val, i64 40
  %spec_use.i88 = getelementptr inbounds nuw i8, ptr %pCurve.0.val, i64 60
  %27 = load i32, ptr %spec_use.i88, align 4
  %spec_count.i89 = getelementptr inbounds nuw i8, ptr %pCurve.0.val, i64 56
  %28 = load i32, ptr %spec_count.i89, align 8
  %cmp.not.i90 = icmp ult i32 %27, %28
  br i1 %cmp.not.i90, label %if.end.i92, label %wc_ecc_curve_cache_load_item.exit104

if.end.i92:                                       ; preds = %if.then49
  %spec_ints.i93 = getelementptr inbounds nuw i8, ptr %pCurve.0.val, i64 48
  %29 = load ptr, ptr %spec_ints.i93, align 8
  %inc.i94 = add nuw i32 %27, 1
  store i32 %inc.i94, ptr %spec_use.i88, align 4
  %conv.i95 = zext i32 %27 to i64
  %mul.i96 = mul nuw nsw i64 %conv.i95, 160
  %add.ptr.i97 = getelementptr inbounds nuw i8, ptr %29, i64 %mul.i96
  store ptr %add.ptr.i97, ptr %Gy50, align 8
  %call.i98 = tail call i32 @sp_init_size(ptr noundef %add.ptr.i97, i32 noundef 19) #19
  %cmp2.i99 = icmp eq i32 %call.i98, 0
  br i1 %cmp2.i99, label %if.then4.i100, label %wc_ecc_curve_cache_load_item.exit104

if.then4.i100:                                    ; preds = %if.end.i92
  %30 = load i8, ptr %load_mask8, align 8
  %or8.i102 = or i8 %30, 32
  store i8 %or8.i102, ptr %load_mask8, align 8
  %31 = load ptr, ptr %Gy50, align 8
  %call8.i103 = tail call i32 @sp_read_radix(ptr noundef %31, ptr noundef %26, i32 noundef 16) #19
  br label %wc_ecc_curve_cache_load_item.exit104

wc_ecc_curve_cache_load_item.exit104:             ; preds = %if.then49, %if.end.i92, %if.then4.i100
  %retval.0.i91 = phi i32 [ -170, %if.then49 ], [ %call8.i103, %if.then4.i100 ], [ %call.i98, %if.end.i92 ]
  %add52 = add nsw i32 %retval.0.i91, %ret.3
  br label %if.end53

if.end53:                                         ; preds = %wc_ecc_curve_cache_load_item.exit104, %if.end45
  %ret.4 = phi i32 [ %add52, %wc_ecc_curve_cache_load_item.exit104 ], [ %ret.3, %if.end45 ]
  %cmp54.not = icmp eq i32 %ret.4, 0
  br i1 %cmp54.not, label %return, label %if.then56

if.then56:                                        ; preds = %if.end53
  tail call fastcc void @wc_ecc_curve_free(ptr noundef nonnull %pCurve.0.val)
  br label %return

return:                                           ; preds = %if.end53, %if.then56, %entry
  %retval.0 = phi i32 [ -173, %entry ], [ -111, %if.then56 ], [ 0, %if.end53 ]
  ret i32 %retval.0
}